target datalayout = "e-m:e-p270:32:32-p271:32:32-p272:64:64-i64:64-i128:128-f80:128-n8:16:32:64-S128"
target triple = "x86_64-pc-linux-gnu"

%"class.icu_77::ConstrainedFieldPosition" = type <{ i64, i32, i32, i32, i32, i8, [7 x i8] }>

; Function Attrs: mustprogress nounwind uwtable
define void @_ZN6icu_7724ConstrainedFieldPosition8setStateEiiii(ptr noundef nonnull align 8 dereferenceable(25) %0, i32 noundef %1, i32 noundef %2, i32 noundef %3, i32 noundef %4) #0 align 2 {
  %6 = alloca ptr, align 8
  %7 = alloca i32, align 4
  %8 = alloca i32, align 4
  %9 = alloca i32, align 4
  %10 = alloca i32, align 4
  store ptr %0, ptr %6, align 8, !tbaa !23
  store i32 %1, ptr %7, align 4, !tbaa !14
  store i32 %2, ptr %8, align 4, !tbaa !14
  store i32 %3, ptr %9, align 4, !tbaa !14
  store i32 %4, ptr %10, align 4, !tbaa !14
  %11 = load ptr, ptr %6, align 8
  %12 = load i32, ptr %7, align 4, !tbaa !14
  %13 = getelementptr inbounds nuw %"class.icu_77::ConstrainedFieldPosition", ptr %11, i32 0, i32 4
  store i32 %12, ptr %13, align 4, !tbaa !30
  %14 = load i32, ptr %8, align 4, !tbaa !14
  %15 = getelementptr inbounds nuw %"class.icu_77::ConstrainedFieldPosition", ptr %11, i32 0, i32 1
  store i32 %14, ptr %15, align 8, !tbaa !27
  %16 = load i32, ptr %9, align 4, !tbaa !14
  %17 = getelementptr inbounds nuw %"class.icu_77::ConstrainedFieldPosition", ptr %11, i32 0, i32 2
  store i32 %16, ptr %17, align 4, !tbaa !28
  %18 = load i32, ptr %10, align 4, !tbaa !14
  %19 = getelementptr inbounds nuw %"class.icu_77::ConstrainedFieldPosition", ptr %11, i32 0, i32 3
  store i32 %18, ptr %19, align 8, !tbaa !29
  ret void
}