; Function Attrs: mustprogress nofree norecurse nosync nounwind willreturn memory(argmem: write) uwtable
define void @_ZN6icu_7724ConstrainedFieldPosition8setStateEiiii(ptr noundef nonnull writeonly align 8 captures(none) dereferenceable(25) initializes((8, 24)) %0, i32 noundef %1, i32 noundef %2, i32 noundef %3, i32 noundef %4) local_unnamed_addr #10 align 2 {
  %6 = getelementptr inbounds nuw i8, ptr %0, i64 20
  store i32 %1, ptr %6, align 4, !tbaa !18
  %7 = getelementptr inbounds nuw i8, ptr %0, i64 8
  store i32 %2, ptr %7, align 8, !tbaa !19
  %8 = getelementptr inbounds nuw i8, ptr %0, i64 12
  store i32 %3, ptr %8, align 4, !tbaa !21
  %9 = getelementptr inbounds nuw i8, ptr %0, i64 16
  store i32 %4, ptr %9, align 8, !tbaa !22
  ret void
}